target datalayout = "e-m:e-p270:32:32-p271:32:32-p272:64:64-i64:64-i128:128-f80:128-n8:16:32:64-S128"
target triple = "x86_64-pc-linux-gnu"

%struct.uv_udp_s = type { ptr, ptr, i32, ptr, [2 x ptr], %union.anon, ptr, i32, i64, i64, ptr, ptr, %struct.uv__io_s, [2 x ptr], [2 x ptr] }
%union.anon = type { [4 x ptr] }
%struct.uv__io_s = type { ptr, [2 x ptr], [2 x ptr], i32, i32, i32 }
%struct.uv_loop_s = type { ptr, i32, [2 x ptr], %union.anon.0, ptr, i32, i64, i32, [2 x ptr], [2 x ptr], ptr, i32, i32, [2 x ptr], %union.pthread_mutex_t, %struct.uv_async_s, %union.pthread_rwlock_t, ptr, [2 x ptr], [2 x ptr], [2 x ptr], [2 x ptr], [2 x ptr], ptr, %struct.uv__io_s, i32, %struct.anon, i64, i64, [2 x i32], %struct.uv__io_s, %struct.uv_signal_s, i32, %struct.uv__io_s, ptr, i32 }
%union.anon.0 = type { ptr }
%union.pthread_mutex_t = type { %struct.__pthread_mutex_s }
%struct.__pthread_mutex_s = type { i32, i32, i32, i32, i32, i16, i16, %struct.__pthread_internal_list }
%struct.__pthread_internal_list = type { ptr, ptr }
%struct.uv_async_s = type { ptr, ptr, i32, ptr, [2 x ptr], %union.anon.1, ptr, i32, ptr, [2 x ptr], i32 }
%union.anon.1 = type { [4 x ptr] }
%union.pthread_rwlock_t = type { %struct.__pthread_rwlock_arch_t }
%struct.__pthread_rwlock_arch_t = type { i32, i32, i32, i32, i32, i32, i32, i32, i8, [7 x i8], i64, i32 }
%struct.anon = type { ptr, i32 }
%struct.uv_signal_s = type { ptr, ptr, i32, ptr, [2 x ptr], %union.anon.2, ptr, i32, ptr, i32, %struct.anon.3, i32, i32 }
%union.anon.2 = type { [4 x ptr] }
%struct.anon.3 = type { ptr, ptr, ptr, i32 }

; Function Attrs: nounwind uwtable
define dso_local i32 @uv__udp_recv_stop(ptr noundef %0) #0 {
  %2 = alloca ptr, align 8
  store ptr %0, ptr %2, align 8
  %3 = load ptr, ptr %2, align 8
  %4 = getelementptr inbounds %struct.uv_udp_s, ptr %3, i32 0, i32 1
  %5 = load ptr, ptr %4, align 8
  %6 = load ptr, ptr %2, align 8
  %7 = getelementptr inbounds %struct.uv_udp_s, ptr %6, i32 0, i32 12
  call void @uv__io_stop(ptr noundef %5, ptr noundef %7, i32 noundef 1)
  %8 = load ptr, ptr %2, align 8
  %9 = getelementptr inbounds %struct.uv_udp_s, ptr %8, i32 0, i32 12
  %10 = call i32 @uv__io_active(ptr noundef %9, i32 noundef 4)
  %11 = icmp ne i32 %10, 0
  br i1 %11, label %41, label %12

12:                                               ; preds = %1
  br label %13

13:                                               ; preds = %12
  %14 = load ptr, ptr %2, align 8
  %15 = getelementptr inbounds %struct.uv_udp_s, ptr %14, i32 0, i32 7
  %16 = load i32, ptr %15, align 8
  %17 = and i32 %16, 4
  %18 = icmp eq i32 %17, 0
  br i1 %18, label %19, label %20

19:                                               ; preds = %13
  br label %40

20:                                               ; preds = %13
  %21 = load ptr, ptr %2, align 8
  %22 = getelementptr inbounds %struct.uv_udp_s, ptr %21, i32 0, i32 7
  %23 = load i32, ptr %22, align 8
  %24 = and i32 %23, -5
  store i32 %24, ptr %22, align 8
  %25 = load ptr, ptr %2, align 8
  %26 = getelementptr inbounds %struct.uv_udp_s, ptr %25, i32 0, i32 7
  %27 = load i32, ptr %26, align 8
  %28 = and i32 %27, 8
  %29 = icmp ne i32 %28, 0
  br i1 %29, label %30, label %39

30:                                               ; preds = %20
  br label %31

31:                                               ; preds = %30
  %32 = load ptr, ptr %2, align 8
  %33 = getelementptr inbounds %struct.uv_udp_s, ptr %32, i32 0, i32 1
  %34 = load ptr, ptr %33, align 8
  %35 = getelementptr inbounds %struct.uv_loop_s, ptr %34, i32 0, i32 1
  %36 = load i32, ptr %35, align 8
  %37 = add i32 %36, -1
  store i32 %37, ptr %35, align 8
  br label %38

38:                                               ; preds = %31
  br label %39

39:                                               ; preds = %38, %20
  br label %40

40:                                               ; preds = %39, %19
  br label %41

41:                                               ; preds = %40, %1
  %42 = load ptr, ptr %2, align 8
  %43 = getelementptr inbounds %struct.uv_udp_s, ptr %42, i32 0, i32 10
  store ptr null, ptr %43, align 8
  %44 = load ptr, ptr %2, align 8
  %45 = getelementptr inbounds %struct.uv_udp_s, ptr %44, i32 0, i32 11
  store ptr null, ptr %45, align 8
  ret i32 0
}